; ModuleID = '24/508.c'
source_filename = "24/508.c"
target datalayout = "e-m:e-p270:32:32-p271:32:32-p272:64:64-i64:64-f80:128-n8:16:32:64-S128"
target triple = "x86_64-pc-linux-gnu"

@.str = private unnamed_addr constant [4 x i8] c"%s\0A\00", align 1

; Function Attrs: noinline nounwind uwtable
define dso_local void @main() #0 {
  %1 = alloca [5000 x i8], align 16
  %2 = alloca [50 x [100 x i8]], align 16
  %3 = alloca i32, align 4
  %4 = alloca i32, align 4
  %5 = alloca i32, align 4
  %6 = alloca [50 x i32], align 16
  %7 = alloca [50 x i32], align 16
  %8 = alloca [50 x i32], align 16
  %9 = bitcast [5000 x i8]* %1 to i8*
  call void @llvm.memset.p0i8.i64(i8* align 16 %9, i8 0, i64 5000, i1 false)
  %10 = bitcast i8* %9 to <{ i8, [4999 x i8] }>*
  %11 = getelementptr inbounds <{ i8, [4999 x i8] }>, <{ i8, [4999 x i8] }>* %10, i32 0, i32 0
  store i8 48, i8* %11, align 16
  %12 = bitcast [50 x [100 x i8]]* %2 to i8*
  call void @llvm.memset.p0i8.i64(i8* align 16 %12, i8 0, i64 5000, i1 false)
  %13 = bitcast i8* %12 to <{ <{ i8, [99 x i8] }>, [49 x <{ i8, [99 x i8] }>] }>*
  %14 = getelementptr inbounds <{ <{ i8, [99 x i8] }>, [49 x <{ i8, [99 x i8] }>] }>, <{ <{ i8, [99 x i8] }>, [49 x <{ i8, [99 x i8] }>] }>* %13, i32 0, i32 0
  %15 = getelementptr inbounds <{ i8, [99 x i8] }>, <{ i8, [99 x i8] }>* %14, i32 0, i32 0
  store i8 48, i8* %15, align 16
  store i32 0, i32* %3, align 4
  store i32 0, i32* %4, align 4
  store i32 0, i32* %5, align 4
  %16 = getelementptr inbounds [5000 x i8], [5000 x i8]* %1, i64 0, i64 0
  %17 = call i32 (i8*, ...) bitcast (i32 (...)* @gets to i32 (i8*, ...)*)(i8* %16)
  store i32 0, i32* %3, align 4
  br label %18

18:                                               ; preds = %49, %0
  %19 = load i32, i32* %3, align 4
  %20 = sext i32 %19 to i64
  %21 = getelementptr inbounds [5000 x i8], [5000 x i8]* %1, i64 0, i64 %20
  %22 = load i8, i8* %21, align 1
  %23 = sext i8 %22 to i32
  %24 = icmp ne i32 %23, 0
  br i1 %24, label %25, label %52

25:                                               ; preds = %18
  %26 = load i32, i32* %3, align 4
  %27 = sext i32 %26 to i64
  %28 = getelementptr inbounds [5000 x i8], [5000 x i8]* %1, i64 0, i64 %27
  %29 = load i8, i8* %28, align 1
  %30 = sext i8 %29 to i32
  %31 = icmp ne i32 %30, 32
  br i1 %31, label %32, label %45

32:                                               ; preds = %25
  %33 = load i32, i32* %3, align 4
  %34 = sext i32 %33 to i64
  %35 = getelementptr inbounds [5000 x i8], [5000 x i8]* %1, i64 0, i64 %34
  %36 = load i8, i8* %35, align 1
  %37 = load i32, i32* %4, align 4
  %38 = sext i32 %37 to i64
  %39 = getelementptr inbounds [50 x [100 x i8]], [50 x [100 x i8]]* %2, i64 0, i64 %38
  %40 = load i32, i32* %5, align 4
  %41 = sext i32 %40 to i64
  %42 = getelementptr inbounds [100 x i8], [100 x i8]* %39, i64 0, i64 %41
  store i8 %36, i8* %42, align 1
  %43 = load i32, i32* %5, align 4
  %44 = add nsw i32 %43, 1
  store i32 %44, i32* %5, align 4
  br label %48

45:                                               ; preds = %25
  %46 = load i32, i32* %4, align 4
  %47 = add nsw i32 %46, 1
  store i32 %47, i32* %4, align 4
  store i32 0, i32* %5, align 4
  br label %48

48:                                               ; preds = %45, %32
  br label %49

49:                                               ; preds = %48
  %50 = load i32, i32* %3, align 4
  %51 = add nsw i32 %50, 1
  store i32 %51, i32* %3, align 4
  br label %18

52:                                               ; preds = %18
  store i32 0, i32* %3, align 4
  br label %53

53:                                               ; preds = %67, %52
  %54 = load i32, i32* %3, align 4
  %55 = load i32, i32* %4, align 4
  %56 = icmp sle i32 %54, %55
  br i1 %56, label %57, label %70

57:                                               ; preds = %53
  %58 = load i32, i32* %3, align 4
  %59 = sext i32 %58 to i64
  %60 = getelementptr inbounds [50 x [100 x i8]], [50 x [100 x i8]]* %2, i64 0, i64 %59
  %61 = getelementptr inbounds [100 x i8], [100 x i8]* %60, i64 0, i64 0
  %62 = call i64 @strlen(i8* %61) #4
  %63 = trunc i64 %62 to i32
  %64 = load i32, i32* %3, align 4
  %65 = sext i32 %64 to i64
  %66 = getelementptr inbounds [50 x i32], [50 x i32]* %8, i64 0, i64 %65
  store i32 %63, i32* %66, align 4
  br label %67

67:                                               ; preds = %57
  %68 = load i32, i32* %3, align 4
  %69 = add nsw i32 %68, 1
  store i32 %69, i32* %3, align 4
  br label %53

70:                                               ; preds = %53
  store i32 0, i32* %3, align 4
  br label %71

71:                                               ; preds = %102, %70
  %72 = load i32, i32* %3, align 4
  %73 = load i32, i32* %4, align 4
  %74 = icmp sle i32 %72, %73
  br i1 %74, label %75, label %105

75:                                               ; preds = %71
  %76 = load i32, i32* %3, align 4
  %77 = sext i32 %76 to i64
  %78 = getelementptr inbounds [50 x i32], [50 x i32]* %6, i64 0, i64 %77
  store i32 0, i32* %78, align 4
  store i32 0, i32* %5, align 4
  br label %79

79:                                               ; preds = %98, %75
  %80 = load i32, i32* %5, align 4
  %81 = load i32, i32* %4, align 4
  %82 = icmp sle i32 %80, %81
  br i1 %82, label %83, label %101

83:                                               ; preds = %79
  %84 = load i32, i32* %3, align 4
  %85 = sext i32 %84 to i64
  %86 = getelementptr inbounds [50 x i32], [50 x i32]* %8, i64 0, i64 %85
  %87 = load i32, i32* %86, align 4
  %88 = load i32, i32* %5, align 4
  %89 = sext i32 %88 to i64
  %90 = getelementptr inbounds [50 x i32], [50 x i32]* %8, i64 0, i64 %89
  %91 = load i32, i32* %90, align 4
  %92 = icmp slt i32 %87, %91
  br i1 %92, label %93, label %97

93:                                               ; preds = %83
  %94 = load i32, i32* %3, align 4
  %95 = sext i32 %94 to i64
  %96 = getelementptr inbounds [50 x i32], [50 x i32]* %6, i64 0, i64 %95
  store i32 1, i32* %96, align 4
  br label %97

97:                                               ; preds = %93, %83
  br label %98

98:                                               ; preds = %97
  %99 = load i32, i32* %5, align 4
  %100 = add nsw i32 %99, 1
  store i32 %100, i32* %5, align 4
  br label %79

101:                                              ; preds = %79
  br label %102

102:                                              ; preds = %101
  %103 = load i32, i32* %3, align 4
  %104 = add nsw i32 %103, 1
  store i32 %104, i32* %3, align 4
  br label %71

105:                                              ; preds = %71
  store i32 0, i32* %3, align 4
  br label %106

106:                                              ; preds = %123, %105
  %107 = load i32, i32* %3, align 4
  %108 = load i32, i32* %4, align 4
  %109 = icmp sle i32 %107, %108
  br i1 %109, label %110, label %126

110:                                              ; preds = %106
  %111 = load i32, i32* %3, align 4
  %112 = sext i32 %111 to i64
  %113 = getelementptr inbounds [50 x i32], [50 x i32]* %6, i64 0, i64 %112
  %114 = load i32, i32* %113, align 4
  %115 = icmp eq i32 %114, 0
  br i1 %115, label %116, label %122

116:                                              ; preds = %110
  %117 = load i32, i32* %3, align 4
  %118 = sext i32 %117 to i64
  %119 = getelementptr inbounds [50 x [100 x i8]], [50 x [100 x i8]]* %2, i64 0, i64 %118
  %120 = getelementptr inbounds [100 x i8], [100 x i8]* %119, i64 0, i64 0
  %121 = call i32 (i8*, ...) @printf(i8* getelementptr inbounds ([4 x i8], [4 x i8]* @.str, i64 0, i64 0), i8* %120)
  br label %126

122:                                              ; preds = %110
  br label %123

123:                                              ; preds = %122
  %124 = load i32, i32* %3, align 4
  %125 = add nsw i32 %124, 1
  store i32 %125, i32* %3, align 4
  br label %106

126:                                              ; preds = %116, %106
  store i32 0, i32* %3, align 4
  br label %127

127:                                              ; preds = %158, %126
  %128 = load i32, i32* %3, align 4
  %129 = load i32, i32* %4, align 4
  %130 = icmp sle i32 %128, %129
  br i1 %130, label %131, label %161

131:                                              ; preds = %127
  %132 = load i32, i32* %3, align 4
  %133 = sext i32 %132 to i64
  %134 = getelementptr inbounds [50 x i32], [50 x i32]* %7, i64 0, i64 %133
  store i32 0, i32* %134, align 4
  store i32 0, i32* %5, align 4
  br label %135

135:                                              ; preds = %154, %131
  %136 = load i32, i32* %5, align 4
  %137 = load i32, i32* %4, align 4
  %138 = icmp sle i32 %136, %137
  br i1 %138, label %139, label %157

139:                                              ; preds = %135
  %140 = load i32, i32* %3, align 4
  %141 = sext i32 %140 to i64
  %142 = getelementptr inbounds [50 x i32], [50 x i32]* %8, i64 0, i64 %141
  %143 = load i32, i32* %142, align 4
  %144 = load i32, i32* %5, align 4
  %145 = sext i32 %144 to i64
  %146 = getelementptr inbounds [50 x i32], [50 x i32]* %8, i64 0, i64 %145
  %147 = load i32, i32* %146, align 4
  %148 = icmp sgt i32 %143, %147
  br i1 %148, label %149, label %153

149:                                              ; preds = %139
  %150 = load i32, i32* %3, align 4
  %151 = sext i32 %150 to i64
  %152 = getelementptr inbounds [50 x i32], [50 x i32]* %7, i64 0, i64 %151
  store i32 1, i32* %152, align 4
  br label %153

153:                                              ; preds = %149, %139
  br label %154

154:                                              ; preds = %153
  %155 = load i32, i32* %5, align 4
  %156 = add nsw i32 %155, 1
  store i32 %156, i32* %5, align 4
  br label %135

157:                                              ; preds = %135
  br label %158

158:                                              ; preds = %157
  %159 = load i32, i32* %3, align 4
  %160 = add nsw i32 %159, 1
  store i32 %160, i32* %3, align 4
  br label %127

161:                                              ; preds = %127
  store i32 0, i32* %3, align 4
  br label %162

162:                                              ; preds = %179, %161
  %163 = load i32, i32* %3, align 4
  %164 = load i32, i32* %4, align 4
  %165 = icmp sle i32 %163, %164
  br i1 %165, label %166, label %182

166:                                              ; preds = %162
  %167 = load i32, i32* %3, align 4
  %168 = sext i32 %167 to i64
  %169 = getelementptr inbounds [50 x i32], [50 x i32]* %7, i64 0, i64 %168
  %170 = load i32, i32* %169, align 4
  %171 = icmp eq i32 %170, 0
  br i1 %171, label %172, label %178

172:                                              ; preds = %166
  %173 = load i32, i32* %3, align 4
  %174 = sext i32 %173 to i64
  %175 = getelementptr inbounds [50 x [100 x i8]], [50 x [100 x i8]]* %2, i64 0, i64 %174
  %176 = getelementptr inbounds [100 x i8], [100 x i8]* %175, i64 0, i64 0
  %177 = call i32 (i8*, ...) @printf(i8* getelementptr inbounds ([4 x i8], [4 x i8]* @.str, i64 0, i64 0), i8* %176)
  br label %182

178:                                              ; preds = %166
  br label %179

179:                                              ; preds = %178
  %180 = load i32, i32* %3, align 4
  %181 = add nsw i32 %180, 1
  store i32 %181, i32* %3, align 4
  br label %162

182:                                              ; preds = %172, %162
  ret void
}

; Function Attrs: argmemonly nounwind willreturn
declare void @llvm.memset.p0i8.i64(i8* nocapture writeonly, i8, i64, i1 immarg) #1

declare dso_local i32 @gets(...) #2

; Function Attrs: nounwind readonly
declare dso_local i64 @strlen(i8*) #3

declare dso_local i32 @printf(i8*, ...) #2


!llvm.module.flags = !{!0}
!llvm.ident = !{!1}

!0 = !{i32 1, !"wchar_size", i32 4}
!1 = !{!"clang version 10.0.0-4ubuntu1 "}
